; ModuleID = '2/728.c'
source_filename = "2/728.c"
target datalayout = "e-m:e-p270:32:32-p271:32:32-p272:64:64-i64:64-f80:128-n8:16:32:64-S128"
target triple = "x86_64-pc-linux-gnu"

@.str = private unnamed_addr constant [3 x i8] c"%d\00", align 1
@.str.1 = private unnamed_addr constant [6 x i8] c"%d %s\00", align 1
@.str.2 = private unnamed_addr constant [7 x i8] c"%c\0A%d\0A\00", align 1
@.str.3 = private unnamed_addr constant [4 x i8] c"%d\0A\00", align 1

; Function Attrs: noinline nounwind uwtable
define dso_local i32 @main() #0 {
  %1 = alloca i32, align 4
  %2 = alloca i32, align 4
  %3 = alloca i32, align 4
  %4 = alloca i32, align 4
  %5 = alloca i32, align 4
  %6 = alloca i32, align 4
  %7 = alloca [30 x [99 x i32]], align 16
  %8 = alloca [30 x i32], align 16
  %9 = alloca i32, align 4
  %10 = alloca i32, align 4
  %11 = alloca i32, align 4
  %12 = alloca i32, align 4
  %13 = alloca [40 x i8], align 16
  store i32 0, i32* %1, align 4
  store i32 0, i32* %11, align 4
  store i32 0, i32* %3, align 4
  br label %14

14:                                               ; preds = %21, %0
  %15 = load i32, i32* %3, align 4
  %16 = icmp slt i32 %15, 30
  br i1 %16, label %17, label %24

17:                                               ; preds = %14
  %18 = load i32, i32* %3, align 4
  %19 = sext i32 %18 to i64
  %20 = getelementptr inbounds [30 x i32], [30 x i32]* %8, i64 0, i64 %19
  store i32 0, i32* %20, align 4
  br label %21

21:                                               ; preds = %17
  %22 = load i32, i32* %3, align 4
  %23 = add nsw i32 %22, 1
  store i32 %23, i32* %3, align 4
  br label %14

24:                                               ; preds = %14
  %25 = call i32 (i8*, ...) @__isoc99_scanf(i8* getelementptr inbounds ([3 x i8], [3 x i8]* @.str, i64 0, i64 0), i32* %2)
  store i32 0, i32* %5, align 4
  br label %26

26:                                               ; preds = %67, %24
  %27 = load i32, i32* %5, align 4
  %28 = load i32, i32* %2, align 4
  %29 = icmp slt i32 %27, %28
  br i1 %29, label %30, label %70

30:                                               ; preds = %26
  %31 = getelementptr inbounds [40 x i8], [40 x i8]* %13, i64 0, i64 0
  %32 = call i32 (i8*, ...) @__isoc99_scanf(i8* getelementptr inbounds ([6 x i8], [6 x i8]* @.str.1, i64 0, i64 0), i32* %9, i8* %31)
  %33 = getelementptr inbounds [40 x i8], [40 x i8]* %13, i64 0, i64 0
  %34 = call i64 @strlen(i8* %33) #3
  %35 = trunc i64 %34 to i32
  store i32 %35, i32* %4, align 4
  store i32 0, i32* %3, align 4
  br label %36

36:                                               ; preds = %63, %30
  %37 = load i32, i32* %3, align 4
  %38 = load i32, i32* %4, align 4
  %39 = icmp slt i32 %37, %38
  br i1 %39, label %40, label %66

40:                                               ; preds = %36
  %41 = load i32, i32* %3, align 4
  %42 = sext i32 %41 to i64
  %43 = getelementptr inbounds [40 x i8], [40 x i8]* %13, i64 0, i64 %42
  %44 = load i8, i8* %43, align 1
  %45 = sext i8 %44 to i32
  %46 = sub nsw i32 %45, 65
  store i32 %46, i32* %10, align 4
  %47 = load i32, i32* %10, align 4
  %48 = sext i32 %47 to i64
  %49 = getelementptr inbounds [30 x i32], [30 x i32]* %8, i64 0, i64 %48
  %50 = load i32, i32* %49, align 4
  %51 = add nsw i32 %50, 1
  store i32 %51, i32* %49, align 4
  %52 = load i32, i32* %10, align 4
  %53 = sext i32 %52 to i64
  %54 = getelementptr inbounds [30 x i32], [30 x i32]* %8, i64 0, i64 %53
  %55 = load i32, i32* %54, align 4
  store i32 %55, i32* %6, align 4
  %56 = load i32, i32* %9, align 4
  %57 = load i32, i32* %10, align 4
  %58 = sext i32 %57 to i64
  %59 = getelementptr inbounds [30 x [99 x i32]], [30 x [99 x i32]]* %7, i64 0, i64 %58
  %60 = load i32, i32* %6, align 4
  %61 = sext i32 %60 to i64
  %62 = getelementptr inbounds [99 x i32], [99 x i32]* %59, i64 0, i64 %61
  store i32 %56, i32* %62, align 4
  br label %63

63:                                               ; preds = %40
  %64 = load i32, i32* %3, align 4
  %65 = add nsw i32 %64, 1
  store i32 %65, i32* %3, align 4
  br label %36

66:                                               ; preds = %36
  br label %67

67:                                               ; preds = %66
  %68 = load i32, i32* %5, align 4
  %69 = add nsw i32 %68, 1
  store i32 %69, i32* %5, align 4
  br label %26

70:                                               ; preds = %26
  store i32 0, i32* %3, align 4
  br label %71

71:                                               ; preds = %88, %70
  %72 = load i32, i32* %3, align 4
  %73 = icmp sle i32 %72, 25
  br i1 %73, label %74, label %91

74:                                               ; preds = %71
  %75 = load i32, i32* %3, align 4
  %76 = sext i32 %75 to i64
  %77 = getelementptr inbounds [30 x i32], [30 x i32]* %8, i64 0, i64 %76
  %78 = load i32, i32* %77, align 4
  %79 = load i32, i32* %11, align 4
  %80 = icmp sgt i32 %78, %79
  br i1 %80, label %81, label %87

81:                                               ; preds = %74
  %82 = load i32, i32* %3, align 4
  %83 = sext i32 %82 to i64
  %84 = getelementptr inbounds [30 x i32], [30 x i32]* %8, i64 0, i64 %83
  %85 = load i32, i32* %84, align 4
  store i32 %85, i32* %11, align 4
  %86 = load i32, i32* %3, align 4
  store i32 %86, i32* %12, align 4
  br label %87

87:                                               ; preds = %81, %74
  br label %88

88:                                               ; preds = %87
  %89 = load i32, i32* %3, align 4
  %90 = add nsw i32 %89, 1
  store i32 %90, i32* %3, align 4
  br label %71

91:                                               ; preds = %71
  %92 = load i32, i32* %12, align 4
  %93 = add nsw i32 %92, 65
  %94 = load i32, i32* %11, align 4
  %95 = call i32 (i8*, ...) @printf(i8* getelementptr inbounds ([7 x i8], [7 x i8]* @.str.2, i64 0, i64 0), i32 %93, i32 %94)
  store i32 1, i32* %3, align 4
  br label %96

96:                                               ; preds = %109, %91
  %97 = load i32, i32* %3, align 4
  %98 = load i32, i32* %11, align 4
  %99 = icmp sle i32 %97, %98
  br i1 %99, label %100, label %112

100:                                              ; preds = %96
  %101 = load i32, i32* %12, align 4
  %102 = sext i32 %101 to i64
  %103 = getelementptr inbounds [30 x [99 x i32]], [30 x [99 x i32]]* %7, i64 0, i64 %102
  %104 = load i32, i32* %3, align 4
  %105 = sext i32 %104 to i64
  %106 = getelementptr inbounds [99 x i32], [99 x i32]* %103, i64 0, i64 %105
  %107 = load i32, i32* %106, align 4
  %108 = call i32 (i8*, ...) @printf(i8* getelementptr inbounds ([4 x i8], [4 x i8]* @.str.3, i64 0, i64 0), i32 %107)
  br label %109

109:                                              ; preds = %100
  %110 = load i32, i32* %3, align 4
  %111 = add nsw i32 %110, 1
  store i32 %111, i32* %3, align 4
  br label %96

112:                                              ; preds = %96
  ret i32 0
}

declare dso_local i32 @__isoc99_scanf(i8*, ...) #1

; Function Attrs: nounwind readonly
declare dso_local i64 @strlen(i8*) #2

declare dso_local i32 @printf(i8*, ...) #1


!llvm.module.flags = !{!0}
!llvm.ident = !{!1}

!0 = !{i32 1, !"wchar_size", i32 4}
!1 = !{!"clang version 10.0.0-4ubuntu1 "}
