; ModuleID = 'source-C-CXX/1/728.c'
source_filename = "source-C-CXX/1/728.c"
target datalayout = "e-m:e-p270:32:32-p271:32:32-p272:64:64-i64:64-f80:128-n8:16:32:64-S128"
target triple = "x86_64-pc-linux-gnu"

@.str = private unnamed_addr constant [3 x i8] c"%d\00", align 1
@.str.1 = private unnamed_addr constant [6 x i8] c"%d %s\00", align 1
@.str.2 = private unnamed_addr constant [7 x i8] c"%c\0A%d\0A\00", align 1
@.str.3 = private unnamed_addr constant [4 x i8] c"%d\0A\00", align 1

; Function Attrs: nofree nounwind sspstrong uwtable
define dso_local i32 @main() local_unnamed_addr #0 {
  %1 = alloca i32, align 4
  %2 = alloca [30 x [99 x i32]], align 16
  %3 = alloca [30 x i32], align 16
  %4 = bitcast [30 x i32]* %3 to i8*
  %5 = alloca i32, align 4
  %6 = alloca [40 x i8], align 16
  %7 = bitcast i32* %1 to i8*
  call void @llvm.lifetime.start.p0i8(i64 4, i8* nonnull %7) #5
  %8 = bitcast [30 x [99 x i32]]* %2 to i8*
  call void @llvm.lifetime.start.p0i8(i64 11880, i8* nonnull %8) #5
  call void @llvm.lifetime.start.p0i8(i64 120, i8* nonnull %4) #5
  %9 = bitcast i32* %5 to i8*
  call void @llvm.lifetime.start.p0i8(i64 4, i8* nonnull %9) #5
  call void @llvm.memset.p0i8.i64(i8* noundef nonnull align 16 dereferenceable(120) %4, i8 0, i64 120, i1 false)
  %10 = getelementptr inbounds [40 x i8], [40 x i8]* %6, i64 0, i64 0
  call void @llvm.lifetime.start.p0i8(i64 40, i8* nonnull %10) #5
  %11 = call i32 (i8*, ...) @__isoc99_scanf(i8* getelementptr inbounds ([3 x i8], [3 x i8]* @.str, i64 0, i64 0), i32* nonnull %1)
  %12 = load i32, i32* %1, align 4, !tbaa !5
  %13 = icmp sgt i32 %12, 0
  br i1 %13, label %148, label %14

14:                                               ; preds = %199, %0
  %15 = getelementptr inbounds [30 x i32], [30 x i32]* %3, i64 0, i64 0
  %16 = load i32, i32* %15, align 16, !tbaa !5
  %17 = icmp sgt i32 %16, 0
  %18 = select i1 %17, i32 %16, i32 0
  %19 = getelementptr inbounds [30 x i32], [30 x i32]* %3, i64 0, i64 1
  %20 = load i32, i32* %19, align 4, !tbaa !5
  %21 = icmp sgt i32 %20, %18
  %22 = select i1 %21, i32 %20, i32 %18
  %23 = zext i1 %21 to i32
  %24 = getelementptr inbounds [30 x i32], [30 x i32]* %3, i64 0, i64 2
  %25 = load i32, i32* %24, align 8, !tbaa !5
  %26 = icmp sgt i32 %25, %22
  %27 = select i1 %26, i32 %25, i32 %22
  %28 = select i1 %26, i32 2, i32 %23
  %29 = getelementptr inbounds [30 x i32], [30 x i32]* %3, i64 0, i64 3
  %30 = load i32, i32* %29, align 4, !tbaa !5
  %31 = icmp sgt i32 %30, %27
  %32 = select i1 %31, i32 %30, i32 %27
  %33 = select i1 %31, i32 3, i32 %28
  %34 = getelementptr inbounds [30 x i32], [30 x i32]* %3, i64 0, i64 4
  %35 = load i32, i32* %34, align 16, !tbaa !5
  %36 = icmp sgt i32 %35, %32
  %37 = select i1 %36, i32 %35, i32 %32
  %38 = select i1 %36, i32 4, i32 %33
  %39 = getelementptr inbounds [30 x i32], [30 x i32]* %3, i64 0, i64 5
  %40 = load i32, i32* %39, align 4, !tbaa !5
  %41 = icmp sgt i32 %40, %37
  %42 = select i1 %41, i32 %40, i32 %37
  %43 = select i1 %41, i32 5, i32 %38
  %44 = getelementptr inbounds [30 x i32], [30 x i32]* %3, i64 0, i64 6
  %45 = load i32, i32* %44, align 8, !tbaa !5
  %46 = icmp sgt i32 %45, %42
  %47 = select i1 %46, i32 %45, i32 %42
  %48 = select i1 %46, i32 6, i32 %43
  %49 = getelementptr inbounds [30 x i32], [30 x i32]* %3, i64 0, i64 7
  %50 = load i32, i32* %49, align 4, !tbaa !5
  %51 = icmp sgt i32 %50, %47
  %52 = select i1 %51, i32 %50, i32 %47
  %53 = select i1 %51, i32 7, i32 %48
  %54 = getelementptr inbounds [30 x i32], [30 x i32]* %3, i64 0, i64 8
  %55 = load i32, i32* %54, align 16, !tbaa !5
  %56 = icmp sgt i32 %55, %52
  %57 = select i1 %56, i32 %55, i32 %52
  %58 = select i1 %56, i32 8, i32 %53
  %59 = getelementptr inbounds [30 x i32], [30 x i32]* %3, i64 0, i64 9
  %60 = load i32, i32* %59, align 4, !tbaa !5
  %61 = icmp sgt i32 %60, %57
  %62 = select i1 %61, i32 %60, i32 %57
  %63 = select i1 %61, i32 9, i32 %58
  %64 = getelementptr inbounds [30 x i32], [30 x i32]* %3, i64 0, i64 10
  %65 = load i32, i32* %64, align 8, !tbaa !5
  %66 = icmp sgt i32 %65, %62
  %67 = select i1 %66, i32 %65, i32 %62
  %68 = select i1 %66, i32 10, i32 %63
  %69 = getelementptr inbounds [30 x i32], [30 x i32]* %3, i64 0, i64 11
  %70 = load i32, i32* %69, align 4, !tbaa !5
  %71 = icmp sgt i32 %70, %67
  %72 = select i1 %71, i32 %70, i32 %67
  %73 = select i1 %71, i32 11, i32 %68
  %74 = getelementptr inbounds [30 x i32], [30 x i32]* %3, i64 0, i64 12
  %75 = load i32, i32* %74, align 16, !tbaa !5
  %76 = icmp sgt i32 %75, %72
  %77 = select i1 %76, i32 %75, i32 %72
  %78 = select i1 %76, i32 12, i32 %73
  %79 = getelementptr inbounds [30 x i32], [30 x i32]* %3, i64 0, i64 13
  %80 = load i32, i32* %79, align 4, !tbaa !5
  %81 = icmp sgt i32 %80, %77
  %82 = select i1 %81, i32 %80, i32 %77
  %83 = select i1 %81, i32 13, i32 %78
  %84 = getelementptr inbounds [30 x i32], [30 x i32]* %3, i64 0, i64 14
  %85 = load i32, i32* %84, align 8, !tbaa !5
  %86 = icmp sgt i32 %85, %82
  %87 = select i1 %86, i32 %85, i32 %82
  %88 = select i1 %86, i32 14, i32 %83
  %89 = getelementptr inbounds [30 x i32], [30 x i32]* %3, i64 0, i64 15
  %90 = load i32, i32* %89, align 4, !tbaa !5
  %91 = icmp sgt i32 %90, %87
  %92 = select i1 %91, i32 %90, i32 %87
  %93 = select i1 %91, i32 15, i32 %88
  %94 = getelementptr inbounds [30 x i32], [30 x i32]* %3, i64 0, i64 16
  %95 = load i32, i32* %94, align 16, !tbaa !5
  %96 = icmp sgt i32 %95, %92
  %97 = select i1 %96, i32 %95, i32 %92
  %98 = select i1 %96, i32 16, i32 %93
  %99 = getelementptr inbounds [30 x i32], [30 x i32]* %3, i64 0, i64 17
  %100 = load i32, i32* %99, align 4, !tbaa !5
  %101 = icmp sgt i32 %100, %97
  %102 = select i1 %101, i32 %100, i32 %97
  %103 = select i1 %101, i32 17, i32 %98
  %104 = getelementptr inbounds [30 x i32], [30 x i32]* %3, i64 0, i64 18
  %105 = load i32, i32* %104, align 8, !tbaa !5
  %106 = icmp sgt i32 %105, %102
  %107 = select i1 %106, i32 %105, i32 %102
  %108 = select i1 %106, i32 18, i32 %103
  %109 = getelementptr inbounds [30 x i32], [30 x i32]* %3, i64 0, i64 19
  %110 = load i32, i32* %109, align 4, !tbaa !5
  %111 = icmp sgt i32 %110, %107
  %112 = select i1 %111, i32 %110, i32 %107
  %113 = select i1 %111, i32 19, i32 %108
  %114 = getelementptr inbounds [30 x i32], [30 x i32]* %3, i64 0, i64 20
  %115 = load i32, i32* %114, align 16, !tbaa !5
  %116 = icmp sgt i32 %115, %112
  %117 = select i1 %116, i32 %115, i32 %112
  %118 = select i1 %116, i32 20, i32 %113
  %119 = getelementptr inbounds [30 x i32], [30 x i32]* %3, i64 0, i64 21
  %120 = load i32, i32* %119, align 4, !tbaa !5
  %121 = icmp sgt i32 %120, %117
  %122 = select i1 %121, i32 %120, i32 %117
  %123 = select i1 %121, i32 21, i32 %118
  %124 = getelementptr inbounds [30 x i32], [30 x i32]* %3, i64 0, i64 22
  %125 = load i32, i32* %124, align 8, !tbaa !5
  %126 = icmp sgt i32 %125, %122
  %127 = select i1 %126, i32 %125, i32 %122
  %128 = select i1 %126, i32 22, i32 %123
  %129 = getelementptr inbounds [30 x i32], [30 x i32]* %3, i64 0, i64 23
  %130 = load i32, i32* %129, align 4, !tbaa !5
  %131 = icmp sgt i32 %130, %127
  %132 = select i1 %131, i32 %130, i32 %127
  %133 = select i1 %131, i32 23, i32 %128
  %134 = getelementptr inbounds [30 x i32], [30 x i32]* %3, i64 0, i64 24
  %135 = load i32, i32* %134, align 16, !tbaa !5
  %136 = icmp sgt i32 %135, %132
  %137 = select i1 %136, i32 %135, i32 %132
  %138 = select i1 %136, i32 24, i32 %133
  %139 = getelementptr inbounds [30 x i32], [30 x i32]* %3, i64 0, i64 25
  %140 = load i32, i32* %139, align 4, !tbaa !5
  %141 = icmp sgt i32 %140, %137
  %142 = select i1 %141, i32 %140, i32 %137
  %143 = select i1 %141, i32 25, i32 %138
  %144 = add nuw nsw i32 %143, 65
  %145 = call i32 (i8*, ...) @printf(i8* nonnull dereferenceable(1) getelementptr inbounds ([7 x i8], [7 x i8]* @.str.2, i64 0, i64 0), i32 %144, i32 %142)
  %146 = zext i32 %143 to i64
  %147 = icmp slt i32 %142, 1
  br i1 %147, label %213, label %203

148:                                              ; preds = %0, %199
  %149 = phi i32 [ %200, %199 ], [ 0, %0 ]
  %150 = call i32 (i8*, ...) @__isoc99_scanf(i8* getelementptr inbounds ([6 x i8], [6 x i8]* @.str.1, i64 0, i64 0), i32* nonnull %5, i8* nonnull %10)
  %151 = call i64 @strlen(i8* noundef nonnull %10) #6
  %152 = trunc i64 %151 to i32
  %153 = load i32, i32* %5, align 4
  %154 = icmp sgt i32 %152, 0
  br i1 %154, label %155, label %199

155:                                              ; preds = %148
  %156 = and i64 %151, 4294967295
  %157 = and i64 %151, 1
  %158 = icmp eq i64 %156, 1
  br i1 %158, label %186, label %159

159:                                              ; preds = %155
  %160 = sub nsw i64 %156, %157
  br label %161

161:                                              ; preds = %161, %159
  %162 = phi i64 [ 0, %159 ], [ %183, %161 ]
  %163 = phi i64 [ %160, %159 ], [ %184, %161 ]
  %164 = getelementptr inbounds [40 x i8], [40 x i8]* %6, i64 0, i64 %162
  %165 = load i8, i8* %164, align 2, !tbaa !9
  %166 = sext i8 %165 to i64
  %167 = add nsw i64 %166, -65
  %168 = getelementptr inbounds [30 x i32], [30 x i32]* %3, i64 0, i64 %167
  %169 = load i32, i32* %168, align 4, !tbaa !5
  %170 = add nsw i32 %169, 1
  store i32 %170, i32* %168, align 4, !tbaa !5
  %171 = sext i32 %170 to i64
  %172 = getelementptr inbounds [30 x [99 x i32]], [30 x [99 x i32]]* %2, i64 0, i64 %167, i64 %171
  store i32 %153, i32* %172, align 4, !tbaa !5
  %173 = or i64 %162, 1
  %174 = getelementptr inbounds [40 x i8], [40 x i8]* %6, i64 0, i64 %173
  %175 = load i8, i8* %174, align 1, !tbaa !9
  %176 = sext i8 %175 to i64
  %177 = add nsw i64 %176, -65
  %178 = getelementptr inbounds [30 x i32], [30 x i32]* %3, i64 0, i64 %177
  %179 = load i32, i32* %178, align 4, !tbaa !5
  %180 = add nsw i32 %179, 1
  store i32 %180, i32* %178, align 4, !tbaa !5
  %181 = sext i32 %180 to i64
  %182 = getelementptr inbounds [30 x [99 x i32]], [30 x [99 x i32]]* %2, i64 0, i64 %177, i64 %181
  store i32 %153, i32* %182, align 4, !tbaa !5
  %183 = add nuw nsw i64 %162, 2
  %184 = add i64 %163, -2
  %185 = icmp eq i64 %184, 0
  br i1 %185, label %186, label %161, !llvm.loop !10

186:                                              ; preds = %161, %155
  %187 = phi i64 [ 0, %155 ], [ %183, %161 ]
  %188 = icmp eq i64 %157, 0
  br i1 %188, label %199, label %189

189:                                              ; preds = %186
  %190 = getelementptr inbounds [40 x i8], [40 x i8]* %6, i64 0, i64 %187
  %191 = load i8, i8* %190, align 1, !tbaa !9
  %192 = sext i8 %191 to i64
  %193 = add nsw i64 %192, -65
  %194 = getelementptr inbounds [30 x i32], [30 x i32]* %3, i64 0, i64 %193
  %195 = load i32, i32* %194, align 4, !tbaa !5
  %196 = add nsw i32 %195, 1
  store i32 %196, i32* %194, align 4, !tbaa !5
  %197 = sext i32 %196 to i64
  %198 = getelementptr inbounds [30 x [99 x i32]], [30 x [99 x i32]]* %2, i64 0, i64 %193, i64 %197
  store i32 %153, i32* %198, align 4, !tbaa !5
  br label %199

199:                                              ; preds = %189, %186, %148
  %200 = add nuw nsw i32 %149, 1
  %201 = load i32, i32* %1, align 4, !tbaa !5
  %202 = icmp slt i32 %200, %201
  br i1 %202, label %148, label %14, !llvm.loop !12

203:                                              ; preds = %14
  %204 = add nuw i32 %142, 1
  %205 = zext i32 %204 to i64
  br label %206

206:                                              ; preds = %203, %206
  %207 = phi i64 [ 1, %203 ], [ %211, %206 ]
  %208 = getelementptr inbounds [30 x [99 x i32]], [30 x [99 x i32]]* %2, i64 0, i64 %146, i64 %207
  %209 = load i32, i32* %208, align 4, !tbaa !5
  %210 = call i32 (i8*, ...) @printf(i8* nonnull dereferenceable(1) getelementptr inbounds ([4 x i8], [4 x i8]* @.str.3, i64 0, i64 0), i32 %209)
  %211 = add nuw nsw i64 %207, 1
  %212 = icmp eq i64 %211, %205
  br i1 %212, label %213, label %206, !llvm.loop !13

213:                                              ; preds = %206, %14
  call void @llvm.lifetime.end.p0i8(i64 40, i8* nonnull %10) #5
  call void @llvm.lifetime.end.p0i8(i64 4, i8* nonnull %9) #5
  call void @llvm.lifetime.end.p0i8(i64 120, i8* nonnull %4) #5
  call void @llvm.lifetime.end.p0i8(i64 11880, i8* nonnull %8) #5
  call void @llvm.lifetime.end.p0i8(i64 4, i8* nonnull %7) #5
  ret i32 0
}

; Function Attrs: argmemonly mustprogress nofree nosync nounwind willreturn
declare void @llvm.lifetime.start.p0i8(i64 immarg, i8* nocapture) #1

; Function Attrs: nofree nounwind
declare noundef i32 @__isoc99_scanf(i8* nocapture noundef readonly, ...) local_unnamed_addr #2

; Function Attrs: argmemonly mustprogress nofree nounwind readonly willreturn
declare i64 @strlen(i8* nocapture) local_unnamed_addr #3

; Function Attrs: nofree nounwind
declare noundef i32 @printf(i8* nocapture noundef readonly, ...) local_unnamed_addr #2

; Function Attrs: argmemonly mustprogress nofree nosync nounwind willreturn
declare void @llvm.lifetime.end.p0i8(i64 immarg, i8* nocapture) #1

; Function Attrs: argmemonly nofree nounwind willreturn writeonly
declare void @llvm.memset.p0i8.i64(i8* nocapture writeonly, i8, i64, i1 immarg) #4


!llvm.module.flags = !{!0, !1, !2, !3}
!llvm.ident = !{!4}

!0 = !{i32 1, !"wchar_size", i32 4}
!1 = !{i32 7, !"PIC Level", i32 2}
!2 = !{i32 7, !"PIE Level", i32 2}
!3 = !{i32 7, !"uwtable", i32 1}
!4 = !{!"clang version 13.0.0"}
!5 = !{!6, !6, i64 0}
!6 = !{!"int", !7, i64 0}
!7 = !{!"omnipotent char", !8, i64 0}
!8 = !{!"Simple C/C++ TBAA"}
!9 = !{!7, !7, i64 0}
!10 = distinct !{!10, !11}
!11 = !{!"llvm.loop.mustprogress"}
!12 = distinct !{!12, !11}
!13 = distinct !{!13, !11}
